target datalayout = "e-m:e-p270:32:32-p271:32:32-p272:64:64-i64:64-i128:128-f80:128-n8:16:32:64-S128"
target triple = "x86_64-unknown-linux-gnu"

%"class.QuantLib::AmericanPayoffAtHit" = type { double, double, double, double, double, double, double, double, double, double, double, double, double, double, double, double, double, double, double, double, double, i8, double, double, double }

; Function Attrs: mustprogress nounwind uwtable
define noundef double @_ZNK8QuantLib19AmericanPayoffAtHit5gammaEv(ptr noundef nonnull align 8 dereferenceable(200) %this) #5 align 2 {
entry:
  %this.addr = alloca ptr, align 8
  %tempDelta = alloca double, align 8
  %DalphaDs = alloca double, align 8
  %DbetaDs = alloca double, align 8
  %D2alphaDs2 = alloca double, align 8
  %D2betaDs2 = alloca double, align 8
  %DforwardDs = alloca double, align 8
  %DXDs = alloca double, align 8
  %D2forwardDs2 = alloca double, align 8
  %D2XDs2 = alloca double, align 8
  store ptr %this, ptr %this.addr, align 8, !tbaa !3
  %this1 = load ptr, ptr %this.addr, align 8
  call void @llvm.lifetime.start.p0(i64 8, ptr %tempDelta) #15
  %spot_ = getelementptr inbounds nuw %"class.QuantLib::AmericanPayoffAtHit", ptr %this1, i32 0, i32 0
  %0 = load double, ptr %spot_, align 8, !tbaa !11
  %fneg = fneg double %0
  %stdDev_ = getelementptr inbounds nuw %"class.QuantLib::AmericanPayoffAtHit", ptr %this1, i32 0, i32 4
  %1 = load double, ptr %stdDev_, align 8, !tbaa !19
  %mul = fmul double %fneg, %1
  store double %mul, ptr %tempDelta, align 8, !tbaa !9
  call void @llvm.lifetime.start.p0(i64 8, ptr %DalphaDs) #15
  %DalphaDd1_ = getelementptr inbounds nuw %"class.QuantLib::AmericanPayoffAtHit", ptr %this1, i32 0, i32 19
  %2 = load double, ptr %DalphaDd1_, align 8, !tbaa !31
  %3 = load double, ptr %tempDelta, align 8, !tbaa !9
  %div = fdiv double %2, %3
  store double %div, ptr %DalphaDs, align 8, !tbaa !9
  call void @llvm.lifetime.start.p0(i64 8, ptr %DbetaDs) #15
  %DbetaDd2_ = getelementptr inbounds nuw %"class.QuantLib::AmericanPayoffAtHit", ptr %this1, i32 0, i32 20
  %4 = load double, ptr %DbetaDd2_, align 8, !tbaa !33
  %5 = load double, ptr %tempDelta, align 8, !tbaa !9
  %div2 = fdiv double %4, %5
  store double %div2, ptr %DbetaDs, align 8, !tbaa !9
  call void @llvm.lifetime.start.p0(i64 8, ptr %D2alphaDs2) #15
  %6 = load double, ptr %DalphaDs, align 8, !tbaa !9
  %fneg3 = fneg double %6
  %spot_4 = getelementptr inbounds nuw %"class.QuantLib::AmericanPayoffAtHit", ptr %this1, i32 0, i32 0
  %7 = load double, ptr %spot_4, align 8, !tbaa !11
  %div5 = fdiv double %fneg3, %7
  %D1_ = getelementptr inbounds nuw %"class.QuantLib::AmericanPayoffAtHit", ptr %this1, i32 0, i32 13
  %8 = load double, ptr %D1_, align 8, !tbaa !26
  %stdDev_6 = getelementptr inbounds nuw %"class.QuantLib::AmericanPayoffAtHit", ptr %this1, i32 0, i32 4
  %9 = load double, ptr %stdDev_6, align 8, !tbaa !19
  %div7 = fdiv double %8, %9
  %sub = fsub double 1.000000e+00, %div7
  %mul8 = fmul double %div5, %sub
  store double %mul8, ptr %D2alphaDs2, align 8, !tbaa !9
  call void @llvm.lifetime.start.p0(i64 8, ptr %D2betaDs2) #15
  %10 = load double, ptr %DbetaDs, align 8, !tbaa !9
  %fneg9 = fneg double %10
  %spot_10 = getelementptr inbounds nuw %"class.QuantLib::AmericanPayoffAtHit", ptr %this1, i32 0, i32 0
  %11 = load double, ptr %spot_10, align 8, !tbaa !11
  %div11 = fdiv double %fneg9, %11
  %D2_ = getelementptr inbounds nuw %"class.QuantLib::AmericanPayoffAtHit", ptr %this1, i32 0, i32 14
  %12 = load double, ptr %D2_, align 8, !tbaa !27
  %stdDev_12 = getelementptr inbounds nuw %"class.QuantLib::AmericanPayoffAtHit", ptr %this1, i32 0, i32 4
  %13 = load double, ptr %stdDev_12, align 8, !tbaa !19
  %div13 = fdiv double %12, %13
  %sub14 = fsub double 1.000000e+00, %div13
  %mul15 = fmul double %div11, %sub14
  store double %mul15, ptr %D2betaDs2, align 8, !tbaa !9
  call void @llvm.lifetime.start.p0(i64 8, ptr %DforwardDs) #15
  call void @llvm.lifetime.start.p0(i64 8, ptr %DXDs) #15
  call void @llvm.lifetime.start.p0(i64 8, ptr %D2forwardDs2) #15
  call void @llvm.lifetime.start.p0(i64 8, ptr %D2XDs2) #15
  %inTheMoney_ = getelementptr inbounds nuw %"class.QuantLib::AmericanPayoffAtHit", ptr %this1, i32 0, i32 21
  %14 = load i8, ptr %inTheMoney_, align 8, !tbaa !36, !range !37, !noundef !38
  %loadedv = trunc i8 %14 to i1
  br i1 %loadedv, label %if.then, label %if.else

if.then:                                          ; preds = %entry
  store double 0.000000e+00, ptr %DforwardDs, align 8, !tbaa !9
  store double 0.000000e+00, ptr %DXDs, align 8, !tbaa !9
  store double 0.000000e+00, ptr %D2forwardDs2, align 8, !tbaa !9
  store double 0.000000e+00, ptr %D2XDs2, align 8, !tbaa !9
  br label %if.end

if.else:                                          ; preds = %entry
  %muPlusLambda_ = getelementptr inbounds nuw %"class.QuantLib::AmericanPayoffAtHit", ptr %this1, i32 0, i32 10
  %15 = load double, ptr %muPlusLambda_, align 8, !tbaa !34
  %fneg16 = fneg double %15
  %forward_ = getelementptr inbounds nuw %"class.QuantLib::AmericanPayoffAtHit", ptr %this1, i32 0, i32 22
  %16 = load double, ptr %forward_, align 8, !tbaa !39
  %mul17 = fmul double %fneg16, %16
  %spot_18 = getelementptr inbounds nuw %"class.QuantLib::AmericanPayoffAtHit", ptr %this1, i32 0, i32 0
  %17 = load double, ptr %spot_18, align 8, !tbaa !11
  %div19 = fdiv double %mul17, %17
  store double %div19, ptr %DforwardDs, align 8, !tbaa !9
  %muMinusLambda_ = getelementptr inbounds nuw %"class.QuantLib::AmericanPayoffAtHit", ptr %this1, i32 0, i32 11
  %18 = load double, ptr %muMinusLambda_, align 8, !tbaa !35
  %fneg20 = fneg double %18
  %X_ = getelementptr inbounds nuw %"class.QuantLib::AmericanPayoffAtHit", ptr %this1, i32 0, i32 23
  %19 = load double, ptr %X_, align 8, !tbaa !40
  %mul21 = fmul double %fneg20, %19
  %spot_22 = getelementptr inbounds nuw %"class.QuantLib::AmericanPayoffAtHit", ptr %this1, i32 0, i32 0
  %20 = load double, ptr %spot_22, align 8, !tbaa !11
  %div23 = fdiv double %mul21, %20
  store double %div23, ptr %DXDs, align 8, !tbaa !9
  %muPlusLambda_24 = getelementptr inbounds nuw %"class.QuantLib::AmericanPayoffAtHit", ptr %this1, i32 0, i32 10
  %21 = load double, ptr %muPlusLambda_24, align 8, !tbaa !34
  %forward_25 = getelementptr inbounds nuw %"class.QuantLib::AmericanPayoffAtHit", ptr %this1, i32 0, i32 22
  %22 = load double, ptr %forward_25, align 8, !tbaa !39
  %mul26 = fmul double %21, %22
  %spot_27 = getelementptr inbounds nuw %"class.QuantLib::AmericanPayoffAtHit", ptr %this1, i32 0, i32 0
  %23 = load double, ptr %spot_27, align 8, !tbaa !11
  %spot_28 = getelementptr inbounds nuw %"class.QuantLib::AmericanPayoffAtHit", ptr %this1, i32 0, i32 0
  %24 = load double, ptr %spot_28, align 8, !tbaa !11
  %mul29 = fmul double %23, %24
  %div30 = fdiv double %mul26, %mul29
  %muPlusLambda_31 = getelementptr inbounds nuw %"class.QuantLib::AmericanPayoffAtHit", ptr %this1, i32 0, i32 10
  %25 = load double, ptr %muPlusLambda_31, align 8, !tbaa !34
  %add = fadd double 1.000000e+00, %25
  %mul32 = fmul double %div30, %add
  store double %mul32, ptr %D2forwardDs2, align 8, !tbaa !9
  %muMinusLambda_33 = getelementptr inbounds nuw %"class.QuantLib::AmericanPayoffAtHit", ptr %this1, i32 0, i32 11
  %26 = load double, ptr %muMinusLambda_33, align 8, !tbaa !35
  %X_34 = getelementptr inbounds nuw %"class.QuantLib::AmericanPayoffAtHit", ptr %this1, i32 0, i32 23
  %27 = load double, ptr %X_34, align 8, !tbaa !40
  %mul35 = fmul double %26, %27
  %spot_36 = getelementptr inbounds nuw %"class.QuantLib::AmericanPayoffAtHit", ptr %this1, i32 0, i32 0
  %28 = load double, ptr %spot_36, align 8, !tbaa !11
  %spot_37 = getelementptr inbounds nuw %"class.QuantLib::AmericanPayoffAtHit", ptr %this1, i32 0, i32 0
  %29 = load double, ptr %spot_37, align 8, !tbaa !11
  %mul38 = fmul double %28, %29
  %div39 = fdiv double %mul35, %mul38
  %muMinusLambda_40 = getelementptr inbounds nuw %"class.QuantLib::AmericanPayoffAtHit", ptr %this1, i32 0, i32 11
  %30 = load double, ptr %muMinusLambda_40, align 8, !tbaa !35
  %add41 = fadd double 1.000000e+00, %30
  %mul42 = fmul double %div39, %add41
  store double %mul42, ptr %D2XDs2, align 8, !tbaa !9
  br label %if.end

if.end:                                           ; preds = %if.else, %if.then
  %K_ = getelementptr inbounds nuw %"class.QuantLib::AmericanPayoffAtHit", ptr %this1, i32 0, i32 6
  %31 = load double, ptr %K_, align 8, !tbaa !42
  %32 = load double, ptr %D2alphaDs2, align 8, !tbaa !9
  %forward_43 = getelementptr inbounds nuw %"class.QuantLib::AmericanPayoffAtHit", ptr %this1, i32 0, i32 22
  %33 = load double, ptr %forward_43, align 8, !tbaa !39
  %34 = load double, ptr %DalphaDs, align 8, !tbaa !9
  %35 = load double, ptr %DforwardDs, align 8, !tbaa !9
  %mul45 = fmul double %34, %35
  %36 = call double @llvm.fmuladd.f64(double %32, double %33, double %mul45)
  %37 = load double, ptr %DalphaDs, align 8, !tbaa !9
  %38 = load double, ptr %DforwardDs, align 8, !tbaa !9
  %39 = call double @llvm.fmuladd.f64(double %37, double %38, double %36)
  %alpha_ = getelementptr inbounds nuw %"class.QuantLib::AmericanPayoffAtHit", ptr %this1, i32 0, i32 17
  %40 = load double, ptr %alpha_, align 8, !tbaa !30
  %41 = load double, ptr %D2forwardDs2, align 8, !tbaa !9
  %42 = call double @llvm.fmuladd.f64(double %40, double %41, double %39)
  %43 = load double, ptr %D2betaDs2, align 8, !tbaa !9
  %X_48 = getelementptr inbounds nuw %"class.QuantLib::AmericanPayoffAtHit", ptr %this1, i32 0, i32 23
  %44 = load double, ptr %X_48, align 8, !tbaa !40
  %45 = call double @llvm.fmuladd.f64(double %43, double %44, double %42)
  %46 = load double, ptr %DbetaDs, align 8, !tbaa !9
  %47 = load double, ptr %DXDs, align 8, !tbaa !9
  %48 = call double @llvm.fmuladd.f64(double %46, double %47, double %45)
  %49 = load double, ptr %DbetaDs, align 8, !tbaa !9
  %50 = load double, ptr %DXDs, align 8, !tbaa !9
  %51 = call double @llvm.fmuladd.f64(double %49, double %50, double %48)
  %beta_ = getelementptr inbounds nuw %"class.QuantLib::AmericanPayoffAtHit", ptr %this1, i32 0, i32 18
  %52 = load double, ptr %beta_, align 8, !tbaa !32
  %53 = load double, ptr %D2XDs2, align 8, !tbaa !9
  %54 = call double @llvm.fmuladd.f64(double %52, double %53, double %51)
  %mul53 = fmul double %31, %54
  call void @llvm.lifetime.end.p0(i64 8, ptr %D2XDs2) #15
  call void @llvm.lifetime.end.p0(i64 8, ptr %D2forwardDs2) #15
  call void @llvm.lifetime.end.p0(i64 8, ptr %DXDs) #15
  call void @llvm.lifetime.end.p0(i64 8, ptr %DforwardDs) #15
  call void @llvm.lifetime.end.p0(i64 8, ptr %D2betaDs2) #15
  call void @llvm.lifetime.end.p0(i64 8, ptr %D2alphaDs2) #15
  call void @llvm.lifetime.end.p0(i64 8, ptr %DbetaDs) #15
  call void @llvm.lifetime.end.p0(i64 8, ptr %DalphaDs) #15
  call void @llvm.lifetime.end.p0(i64 8, ptr %tempDelta) #15
  ret double %mul53
}