; Function Attrs: mustprogress nofree norecurse nosync nounwind willreturn memory(argmem: read) uwtable
define noundef double @_ZNK8QuantLib19AmericanPayoffAtHit5gammaEv(ptr nocapture noundef nonnull readonly align 8 dereferenceable(200) %this) local_unnamed_addr #11 align 2 {
entry:
  %0 = load double, ptr %this, align 8, !tbaa !18
  %stdDev_ = getelementptr inbounds nuw i8, ptr %this, i64 32
  %1 = load double, ptr %stdDev_, align 8, !tbaa !27
  %DalphaDd1_ = getelementptr inbounds nuw i8, ptr %this, i64 152
  %2 = load double, ptr %DalphaDd1_, align 8, !tbaa !73
  %DbetaDd2_ = getelementptr inbounds nuw i8, ptr %this, i64 160
  %3 = load double, ptr %DbetaDd2_, align 8, !tbaa !74
  %D1_ = getelementptr inbounds nuw i8, ptr %this, i64 104
  %4 = load double, ptr %D1_, align 8, !tbaa !41
  %D2_ = getelementptr inbounds nuw i8, ptr %this, i64 112
  %5 = load double, ptr %D2_, align 8, !tbaa !42
  %inTheMoney_ = getelementptr inbounds nuw i8, ptr %this, i64 168
  %6 = load i8, ptr %inTheMoney_, align 8, !tbaa !57, !range !72, !noundef !61
  %loadedv = trunc nuw i8 %6 to i1
  br i1 %loadedv, label %entry.if.end_crit_edge, label %if.else

entry.if.end_crit_edge:                           ; preds = %entry
  %forward_43.phi.trans.insert = getelementptr inbounds nuw i8, ptr %this, i64 176
  %.pre = load double, ptr %forward_43.phi.trans.insert, align 8, !tbaa !58
  %X_48.phi.trans.insert = getelementptr inbounds nuw i8, ptr %this, i64 184
  %.pre8 = load double, ptr %X_48.phi.trans.insert, align 8, !tbaa !59
  br label %if.end

if.else:                                          ; preds = %entry
  %muPlusLambda_ = getelementptr inbounds nuw i8, ptr %this, i64 80
  %7 = load double, ptr %muPlusLambda_, align 8, !tbaa !55
  %fneg16 = fneg double %7
  %forward_ = getelementptr inbounds nuw i8, ptr %this, i64 176
  %8 = load double, ptr %forward_, align 8, !tbaa !58
  %mul17 = fmul double %8, %fneg16
  %div19 = fdiv double %mul17, %0
  %muMinusLambda_ = getelementptr inbounds nuw i8, ptr %this, i64 88
  %9 = load double, ptr %muMinusLambda_, align 8, !tbaa !56
  %fneg20 = fneg double %9
  %X_ = getelementptr inbounds nuw i8, ptr %this, i64 184
  %10 = load double, ptr %X_, align 8, !tbaa !59
  %mul21 = fmul double %10, %fneg20
  %div23 = fdiv double %mul21, %0
  %mul26 = fmul double %7, %8
  %mul29 = fmul double %0, %0
  %div30 = fdiv double %mul26, %mul29
  %add = fadd double %7, 1.000000e+00
  %mul32 = fmul double %add, %div30
  %mul35 = fmul double %9, %10
  %div39 = fdiv double %mul35, %mul29
  %add41 = fadd double %9, 1.000000e+00
  %mul42 = fmul double %add41, %div39
  br label %if.end

if.end:                                           ; preds = %entry.if.end_crit_edge, %if.else
  %11 = phi double [ %10, %if.else ], [ %.pre8, %entry.if.end_crit_edge ]
  %12 = phi double [ %8, %if.else ], [ %.pre, %entry.if.end_crit_edge ]
  %DforwardDs.0 = phi double [ %div19, %if.else ], [ 0.000000e+00, %entry.if.end_crit_edge ]
  %DXDs.0 = phi double [ %div23, %if.else ], [ 0.000000e+00, %entry.if.end_crit_edge ]
  %D2forwardDs2.0 = phi double [ %mul32, %if.else ], [ 0.000000e+00, %entry.if.end_crit_edge ]
  %D2XDs2.0 = phi double [ %mul42, %if.else ], [ 0.000000e+00, %entry.if.end_crit_edge ]
  %fneg = fneg double %0
  %mul = fmul double %1, %fneg
  %div2 = fdiv double %3, %mul
  %fneg9 = fneg double %div2
  %div11 = fdiv double %fneg9, %0
  %div13 = fdiv double %5, %1
  %sub14 = fsub double 1.000000e+00, %div13
  %mul15 = fmul double %div11, %sub14
  %div = fdiv double %2, %mul
  %fneg3 = fneg double %div
  %div5 = fdiv double %fneg3, %0
  %div7 = fdiv double %4, %1
  %sub = fsub double 1.000000e+00, %div7
  %mul8 = fmul double %div5, %sub
  %K_ = getelementptr inbounds nuw i8, ptr %this, i64 48
  %13 = load double, ptr %K_, align 8, !tbaa !67
  %mul45 = fmul double %div, %DforwardDs.0
  %14 = tail call double @llvm.fmuladd.f64(double %mul8, double %12, double %mul45)
  %15 = tail call double @llvm.fmuladd.f64(double %div, double %DforwardDs.0, double %14)
  %alpha_ = getelementptr inbounds nuw i8, ptr %this, i64 136
  %16 = load double, ptr %alpha_, align 8, !tbaa !75
  %17 = tail call double @llvm.fmuladd.f64(double %16, double %D2forwardDs2.0, double %15)
  %18 = tail call double @llvm.fmuladd.f64(double %mul15, double %11, double %17)
  %19 = tail call double @llvm.fmuladd.f64(double %div2, double %DXDs.0, double %18)
  %20 = tail call double @llvm.fmuladd.f64(double %div2, double %DXDs.0, double %19)
  %beta_ = getelementptr inbounds nuw i8, ptr %this, i64 144
  %21 = load double, ptr %beta_, align 8, !tbaa !76
  %22 = tail call double @llvm.fmuladd.f64(double %21, double %D2XDs2.0, double %20)
  %mul53 = fmul double %13, %22
  ret double %mul53
}